target datalayout = "e-m:e-p270:32:32-p271:32:32-p272:64:64-i64:64-i128:128-f80:128-n8:16:32:64-S128"
target triple = "x86_64-pc-linux-gnu"

%struct.EncoderSession = type { i32, i32, i32, i32, ptr, ptr, ptr, i32, i32, i32, i64, i64, i64, i64, i32, i64, [16 x i8], %struct.SampleInfo, i32, %union.anon.4, ptr, ptr, ptr, double, double }
%struct.SampleInfo = type { i32, i32, i32, i32, i32, i32, i32, i32 }
%union.anon.4 = type { %struct.anon.6 }
%struct.anon.6 = type { ptr, %struct.FLACDecoderData }
%struct.FLACDecoderData = type { i64, ptr, i32, i64, [1024 x ptr], i64, i32 }

@stderr = external global ptr, align 8
@.str.101 = private unnamed_addr constant [53 x i8] c"%s: ERROR: mismatch in decoded data, verify FAILED!\0A\00", align 1
@.str.102 = private unnamed_addr constant [82 x i8] c"       Absolute sample=%lu, frame=%u, channel=%u, sample=%u, expected %d, got %d\0A\00", align 1
@.str.103 = private unnamed_addr constant [75 x i8] c"       In all known cases, verify errors are caused by hardware problems,\0A\00", align 1
@.str.104 = private unnamed_addr constant [52 x i8] c"       usually overclocking or bad RAM.  Delete %s\0A\00", align 1
@.str.105 = private unnamed_addr constant [78 x i8] c"       and repeat the flac command exactly as before.  If it does not give a\0A\00", align 1
@.str.106 = private unnamed_addr constant [81 x i8] c"       verify error in the exact same place each time you try it, then there is\0A\00", align 1
@.str.107 = private unnamed_addr constant [58 x i8] c"       a problem with your hardware; please see the FAQ:\0A\00", align 1
@.str.108 = private unnamed_addr constant [63 x i8] c"           http://xiph.org/flac/faq.html#tools__hardware_prob\0A\00", align 1
@.str.109 = private unnamed_addr constant [65 x i8] c"       If it does fail in the exact same place every time, keep\0A\00", align 1
@.str.110 = private unnamed_addr constant [39 x i8] c"       %s and submit a bug report to:\0A\00", align 1
@.str.111 = private unnamed_addr constant [48 x i8] c"           https://github.com/xiph/flac/issues\0A\00", align 1
@.str.112 = private unnamed_addr constant [75 x i8] c"       Make sure to upload the FLAC file and use the \22Monitor\22 feature to\0A\00", align 1
@.str.113 = private unnamed_addr constant [32 x i8] c"       monitor the bug status.\0A\00", align 1
@.str.114 = private unnamed_addr constant [33 x i8] c"Verify FAILED!  Do not trust %s\0A\00", align 1

; Function Attrs: nounwind sspstrong uwtable
define internal void @print_verify_error(ptr noundef %0) #0 {
  %2 = alloca ptr, align 8
  %3 = alloca i64, align 8
  %4 = alloca i32, align 4
  %5 = alloca i32, align 4
  %6 = alloca i32, align 4
  %7 = alloca i32, align 4
  %8 = alloca i32, align 4
  store ptr %0, ptr %2, align 8, !tbaa !48
  call void @llvm.lifetime.start.p0(i64 8, ptr %3) #14
  call void @llvm.lifetime.start.p0(i64 4, ptr %4) #14
  call void @llvm.lifetime.start.p0(i64 4, ptr %5) #14
  call void @llvm.lifetime.start.p0(i64 4, ptr %6) #14
  call void @llvm.lifetime.start.p0(i64 4, ptr %7) #14
  call void @llvm.lifetime.start.p0(i64 4, ptr %8) #14
  %9 = load ptr, ptr %2, align 8, !tbaa !48
  %10 = getelementptr inbounds nuw %struct.EncoderSession, ptr %9, i32 0, i32 20
  %11 = load ptr, ptr %10, align 8, !tbaa !66
  call void @FLAC__stream_encoder_get_verify_decoder_error_stats(ptr noundef %11, ptr noundef %3, ptr noundef %4, ptr noundef %5, ptr noundef %6, ptr noundef %7, ptr noundef %8)
  %12 = load ptr, ptr @stderr, align 8, !tbaa !4
  %13 = load ptr, ptr %2, align 8, !tbaa !48
  %14 = getelementptr inbounds nuw %struct.EncoderSession, ptr %13, i32 0, i32 4
  %15 = load ptr, ptr %14, align 8, !tbaa !24
  call void (ptr, i32, ptr, ...) @flac__utils_printf(ptr noundef %12, i32 noundef 1, ptr noundef @.str.101, ptr noundef %15)
  %16 = load ptr, ptr @stderr, align 8, !tbaa !4
  %17 = load i64, ptr %3, align 8, !tbaa !9
  %18 = load i32, ptr %4, align 4, !tbaa !13
  %19 = load i32, ptr %5, align 4, !tbaa !13
  %20 = load i32, ptr %6, align 4, !tbaa !13
  %21 = load i32, ptr %7, align 4, !tbaa !13
  %22 = load i32, ptr %8, align 4, !tbaa !13
  call void (ptr, i32, ptr, ...) @flac__utils_printf(ptr noundef %16, i32 noundef 1, ptr noundef @.str.102, i64 noundef %17, i32 noundef %18, i32 noundef %19, i32 noundef %20, i32 noundef %21, i32 noundef %22)
  %23 = load ptr, ptr @stderr, align 8, !tbaa !4
  call void (ptr, i32, ptr, ...) @flac__utils_printf(ptr noundef %23, i32 noundef 1, ptr noundef @.str.103)
  %24 = load ptr, ptr @stderr, align 8, !tbaa !4
  %25 = load ptr, ptr %2, align 8, !tbaa !48
  %26 = getelementptr inbounds nuw %struct.EncoderSession, ptr %25, i32 0, i32 6
  %27 = load ptr, ptr %26, align 8, !tbaa !60
  call void (ptr, i32, ptr, ...) @flac__utils_printf(ptr noundef %24, i32 noundef 1, ptr noundef @.str.104, ptr noundef %27)
  %28 = load ptr, ptr @stderr, align 8, !tbaa !4
  call void (ptr, i32, ptr, ...) @flac__utils_printf(ptr noundef %28, i32 noundef 1, ptr noundef @.str.105)
  %29 = load ptr, ptr @stderr, align 8, !tbaa !4
  call void (ptr, i32, ptr, ...) @flac__utils_printf(ptr noundef %29, i32 noundef 1, ptr noundef @.str.106)
  %30 = load ptr, ptr @stderr, align 8, !tbaa !4
  call void (ptr, i32, ptr, ...) @flac__utils_printf(ptr noundef %30, i32 noundef 1, ptr noundef @.str.107)
  %31 = load ptr, ptr @stderr, align 8, !tbaa !4
  call void (ptr, i32, ptr, ...) @flac__utils_printf(ptr noundef %31, i32 noundef 1, ptr noundef @.str.108)
  %32 = load ptr, ptr @stderr, align 8, !tbaa !4
  call void (ptr, i32, ptr, ...) @flac__utils_printf(ptr noundef %32, i32 noundef 1, ptr noundef @.str.109)
  %33 = load ptr, ptr @stderr, align 8, !tbaa !4
  %34 = load ptr, ptr %2, align 8, !tbaa !48
  %35 = getelementptr inbounds nuw %struct.EncoderSession, ptr %34, i32 0, i32 6
  %36 = load ptr, ptr %35, align 8, !tbaa !60
  call void (ptr, i32, ptr, ...) @flac__utils_printf(ptr noundef %33, i32 noundef 1, ptr noundef @.str.110, ptr noundef %36)
  %37 = load ptr, ptr @stderr, align 8, !tbaa !4
  call void (ptr, i32, ptr, ...) @flac__utils_printf(ptr noundef %37, i32 noundef 1, ptr noundef @.str.111)
  %38 = load ptr, ptr @stderr, align 8, !tbaa !4
  call void (ptr, i32, ptr, ...) @flac__utils_printf(ptr noundef %38, i32 noundef 1, ptr noundef @.str.112)
  %39 = load ptr, ptr @stderr, align 8, !tbaa !4
  call void (ptr, i32, ptr, ...) @flac__utils_printf(ptr noundef %39, i32 noundef 1, ptr noundef @.str.113)
  %40 = load ptr, ptr @stderr, align 8, !tbaa !4
  %41 = load ptr, ptr %2, align 8, !tbaa !48
  %42 = getelementptr inbounds nuw %struct.EncoderSession, ptr %41, i32 0, i32 6
  %43 = load ptr, ptr %42, align 8, !tbaa !60
  call void (ptr, i32, ptr, ...) @flac__utils_printf(ptr noundef %40, i32 noundef 1, ptr noundef @.str.114, ptr noundef %43)
  call void @llvm.lifetime.end.p0(i64 4, ptr %8) #14
  call void @llvm.lifetime.end.p0(i64 4, ptr %7) #14
  call void @llvm.lifetime.end.p0(i64 4, ptr %6) #14
  call void @llvm.lifetime.end.p0(i64 4, ptr %5) #14
  call void @llvm.lifetime.end.p0(i64 4, ptr %4) #14
  call void @llvm.lifetime.end.p0(i64 8, ptr %3) #14
  ret void
}