; Function Attrs: nounwind sspstrong uwtable
define internal fastcc void @print_verify_error(ptr noundef nonnull readonly captures(none) %0) unnamed_addr #0 {
  %2 = alloca i64, align 8
  %3 = alloca i32, align 4
  %4 = alloca i32, align 4
  %5 = alloca i32, align 4
  %6 = alloca i32, align 4
  %7 = alloca i32, align 4
  call void @llvm.lifetime.start.p0(i64 8, ptr nonnull %2) #20
  call void @llvm.lifetime.start.p0(i64 4, ptr nonnull %3) #20
  call void @llvm.lifetime.start.p0(i64 4, ptr nonnull %4) #20
  call void @llvm.lifetime.start.p0(i64 4, ptr nonnull %5) #20
  call void @llvm.lifetime.start.p0(i64 4, ptr nonnull %6) #20
  call void @llvm.lifetime.start.p0(i64 4, ptr nonnull %7) #20
  %8 = getelementptr inbounds nuw i8, ptr %0, i64 8408
  %9 = load ptr, ptr %8, align 8, !tbaa !34
  call void @FLAC__stream_encoder_get_verify_decoder_error_stats(ptr noundef %9, ptr noundef nonnull %2, ptr noundef nonnull %3, ptr noundef nonnull %4, ptr noundef nonnull %5, ptr noundef nonnull %6, ptr noundef nonnull %7) #20
  %10 = load ptr, ptr @stderr, align 8, !tbaa !33
  %11 = getelementptr inbounds nuw i8, ptr %0, i64 16
  %12 = load ptr, ptr %11, align 8, !tbaa !25
  call void (ptr, i32, ptr, ...) @flac__utils_printf(ptr noundef %10, i32 noundef 1, ptr noundef nonnull @.str.101, ptr noundef %12) #20
  %13 = load ptr, ptr @stderr, align 8, !tbaa !33
  %14 = load i64, ptr %2, align 8, !tbaa !35
  %15 = load i32, ptr %3, align 4, !tbaa !52
  %16 = load i32, ptr %4, align 4, !tbaa !52
  %17 = load i32, ptr %5, align 4, !tbaa !52
  %18 = load i32, ptr %6, align 4, !tbaa !52
  %19 = load i32, ptr %7, align 4, !tbaa !52
  call void (ptr, i32, ptr, ...) @flac__utils_printf(ptr noundef %13, i32 noundef 1, ptr noundef nonnull @.str.102, i64 noundef %14, i32 noundef %15, i32 noundef %16, i32 noundef %17, i32 noundef %18, i32 noundef %19) #20
  %20 = load ptr, ptr @stderr, align 8, !tbaa !33
  call void (ptr, i32, ptr, ...) @flac__utils_printf(ptr noundef %20, i32 noundef 1, ptr noundef nonnull @.str.103) #20
  %21 = load ptr, ptr @stderr, align 8, !tbaa !33
  %22 = getelementptr inbounds nuw i8, ptr %0, i64 32
  %23 = load ptr, ptr %22, align 8, !tbaa !27
  call void (ptr, i32, ptr, ...) @flac__utils_printf(ptr noundef %21, i32 noundef 1, ptr noundef nonnull @.str.104, ptr noundef %23) #20
  %24 = load ptr, ptr @stderr, align 8, !tbaa !33
  call void (ptr, i32, ptr, ...) @flac__utils_printf(ptr noundef %24, i32 noundef 1, ptr noundef nonnull @.str.105) #20
  %25 = load ptr, ptr @stderr, align 8, !tbaa !33
  call void (ptr, i32, ptr, ...) @flac__utils_printf(ptr noundef %25, i32 noundef 1, ptr noundef nonnull @.str.106) #20
  %26 = load ptr, ptr @stderr, align 8, !tbaa !33
  call void (ptr, i32, ptr, ...) @flac__utils_printf(ptr noundef %26, i32 noundef 1, ptr noundef nonnull @.str.107) #20
  %27 = load ptr, ptr @stderr, align 8, !tbaa !33
  call void (ptr, i32, ptr, ...) @flac__utils_printf(ptr noundef %27, i32 noundef 1, ptr noundef nonnull @.str.108) #20
  %28 = load ptr, ptr @stderr, align 8, !tbaa !33
  call void (ptr, i32, ptr, ...) @flac__utils_printf(ptr noundef %28, i32 noundef 1, ptr noundef nonnull @.str.109) #20
  %29 = load ptr, ptr @stderr, align 8, !tbaa !33
  %30 = load ptr, ptr %22, align 8, !tbaa !27
  call void (ptr, i32, ptr, ...) @flac__utils_printf(ptr noundef %29, i32 noundef 1, ptr noundef nonnull @.str.110, ptr noundef %30) #20
  %31 = load ptr, ptr @stderr, align 8, !tbaa !33
  call void (ptr, i32, ptr, ...) @flac__utils_printf(ptr noundef %31, i32 noundef 1, ptr noundef nonnull @.str.111) #20
  %32 = load ptr, ptr @stderr, align 8, !tbaa !33
  call void (ptr, i32, ptr, ...) @flac__utils_printf(ptr noundef %32, i32 noundef 1, ptr noundef nonnull @.str.112) #20
  %33 = load ptr, ptr @stderr, align 8, !tbaa !33
  call void (ptr, i32, ptr, ...) @flac__utils_printf(ptr noundef %33, i32 noundef 1, ptr noundef nonnull @.str.113) #20
  %34 = load ptr, ptr @stderr, align 8, !tbaa !33
  %35 = load ptr, ptr %22, align 8, !tbaa !27
  call void (ptr, i32, ptr, ...) @flac__utils_printf(ptr noundef %34, i32 noundef 1, ptr noundef nonnull @.str.114, ptr noundef %35) #20
  call void @llvm.lifetime.end.p0(i64 4, ptr nonnull %7) #20
  call void @llvm.lifetime.end.p0(i64 4, ptr nonnull %6) #20
  call void @llvm.lifetime.end.p0(i64 4, ptr nonnull %5) #20
  call void @llvm.lifetime.end.p0(i64 4, ptr nonnull %4) #20
  call void @llvm.lifetime.end.p0(i64 4, ptr nonnull %3) #20
  call void @llvm.lifetime.end.p0(i64 8, ptr nonnull %2) #20
  ret void
}